; Function Attrs: mustprogress uwtable
define hidden void @_ZN4cvc58internal6theory11quantifiers4inst26CandidateGeneratorQELitDeq5resetENS0_12NodeTemplateILb1EEE(ptr nocapture noundef nonnull align 8 dereferenceable(64) %this, ptr nocapture readnone %eqc) unnamed_addr #3 align 2 personality ptr @__gxx_personality_v0 {
entry:
  %falset = alloca %"class.cvc5::internal::NodeTemplate", align 8
  %ref.tmp = alloca i8, align 1
  %ref.tmp3 = alloca %"class.cvc5::internal::theory::eq::EqClassIterator", align 8
  %agg.tmp = alloca %"class.cvc5::internal::NodeTemplate", align 8
  %d_qs = getelementptr inbounds i8, ptr %this, i64 16
  %0 = load ptr, ptr %d_qs, align 8
  %call = tail call noundef ptr @_ZNK4cvc58internal6theory11TheoryState17getEqualityEngineEv(ptr noundef nonnull align 8 dereferenceable(80) %0)
  %call2 = tail call noundef ptr @_ZN4cvc58internal11NodeManager9currentNMEv()
  store i8 0, ptr %ref.tmp, align 1
  call void @_ZN4cvc58internal11NodeManager7mkConstIbEENS0_12NodeTemplateILb1EEERKT_(ptr nonnull sret(%"class.cvc5::internal::NodeTemplate") align 8 %falset, ptr noundef nonnull align 8 dereferenceable(3360) %call2, ptr noundef nonnull align 1 dereferenceable(1) %ref.tmp)
  %1 = load ptr, ptr %falset, align 8
  store ptr %1, ptr %agg.tmp, align 8
  %bf.load.i.i = load i64, ptr %1, align 8
  %bf.lshr.i.i = lshr i64 %bf.load.i.i, 40
  %2 = trunc i64 %bf.lshr.i.i to i32
  %bf.cast.i.i = and i32 %2, 1048575
  %cmp.i.i = icmp ult i32 %bf.cast.i.i, 1048574
  br i1 %cmp.i.i, label %if.then.i.i, label %if.else.i.i

if.then.i.i:                                      ; preds = %entry
  %bf.value.i.i = add i64 %bf.load.i.i, 1099511627776
  %bf.shl.i.i = and i64 %bf.value.i.i, 1152920405095219200
  %bf.clear7.i.i = and i64 %bf.load.i.i, -1152920405095219201
  %bf.set.i.i = or disjoint i64 %bf.shl.i.i, %bf.clear7.i.i
  store i64 %bf.set.i.i, ptr %1, align 8
  br label %invoke.cont

if.else.i.i:                                      ; preds = %entry
  %cmp12.i.i = icmp eq i32 %bf.cast.i.i, 1048574
  br i1 %cmp12.i.i, label %if.then13.i.i, label %invoke.cont

if.then13.i.i:                                    ; preds = %if.else.i.i
  %bf.set23.i.i = or i64 %bf.load.i.i, 1152920405095219200
  store i64 %bf.set23.i.i, ptr %1, align 8
  invoke void @_ZN4cvc58internal4expr9NodeValue20markRefCountMaxedOutEv(ptr noundef nonnull align 8 dereferenceable(16) %1)
          to label %invoke.cont unwind label %lpad

invoke.cont:                                      ; preds = %if.else.i.i, %if.then.i.i, %if.then13.i.i
  invoke void @_ZN4cvc58internal6theory2eq15EqClassIteratorC1ENS0_12NodeTemplateILb1EEEPKNS2_14EqualityEngineE(ptr noundef nonnull align 8 dereferenceable(16) %ref.tmp3, ptr noundef nonnull %agg.tmp, ptr noundef %call)
          to label %invoke.cont5 unwind label %lpad4

invoke.cont5:                                     ; preds = %invoke.cont
  %d_eqc_false = getelementptr inbounds i8, ptr %this, i64 32
  call void @llvm.memcpy.p0.p0.i64(ptr noundef nonnull align 8 dereferenceable(16) %d_eqc_false, ptr noundef nonnull align 8 dereferenceable(16) %ref.tmp3, i64 16, i1 false)
  %3 = load ptr, ptr %agg.tmp, align 8
  %bf.load.i.i2 = load i64, ptr %3, align 8
  %4 = and i64 %bf.load.i.i2, 1152920405095219200
  %cmp.not.i.i = icmp eq i64 %4, 1152920405095219200
  br i1 %cmp.not.i.i, label %_ZN4cvc58internal12NodeTemplateILb1EED2Ev.exit, label %if.then.i.i3

if.then.i.i3:                                     ; preds = %invoke.cont5
  %bf.value.i.i4 = add i64 %bf.load.i.i2, 1152920405095219200
  %bf.shl.i.i5 = and i64 %bf.value.i.i4, 1152920405095219200
  %bf.clear7.i.i6 = and i64 %bf.load.i.i2, -1152920405095219201
  %bf.set.i.i7 = or disjoint i64 %bf.shl.i.i5, %bf.clear7.i.i6
  store i64 %bf.set.i.i7, ptr %3, align 8
  %cmp12.i.i8 = icmp eq i64 %bf.shl.i.i5, 0
  br i1 %cmp12.i.i8, label %if.then13.i.i9, label %_ZN4cvc58internal12NodeTemplateILb1EED2Ev.exit

if.then13.i.i9:                                   ; preds = %if.then.i.i3
  invoke void @_ZN4cvc58internal4expr9NodeValue15markForDeletionEv(ptr noundef nonnull align 8 dereferenceable(16) %3)
          to label %_ZN4cvc58internal12NodeTemplateILb1EED2Ev.exit unwind label %terminate.lpad.i

terminate.lpad.i:                                 ; preds = %if.then13.i.i9
  %5 = landingpad { ptr, i32 }
          catch ptr null
  %6 = extractvalue { ptr, i32 } %5, 0
  call void @__clang_call_terminate(ptr %6) #14
  unreachable

_ZN4cvc58internal12NodeTemplateILb1EED2Ev.exit:   ; preds = %invoke.cont5, %if.then.i.i3, %if.then13.i.i9
  %7 = load ptr, ptr %falset, align 8
  %bf.load.i.i10 = load i64, ptr %7, align 8
  %8 = and i64 %bf.load.i.i10, 1152920405095219200
  %cmp.not.i.i11 = icmp eq i64 %8, 1152920405095219200
  br i1 %cmp.not.i.i11, label %_ZN4cvc58internal12NodeTemplateILb1EED2Ev.exit20, label %if.then.i.i12

if.then.i.i12:                                    ; preds = %_ZN4cvc58internal12NodeTemplateILb1EED2Ev.exit
  %bf.value.i.i13 = add i64 %bf.load.i.i10, 1152920405095219200
  %bf.shl.i.i14 = and i64 %bf.value.i.i13, 1152920405095219200
  %bf.clear7.i.i15 = and i64 %bf.load.i.i10, -1152920405095219201
  %bf.set.i.i16 = or disjoint i64 %bf.shl.i.i14, %bf.clear7.i.i15
  store i64 %bf.set.i.i16, ptr %7, align 8
  %cmp12.i.i17 = icmp eq i64 %bf.shl.i.i14, 0
  br i1 %cmp12.i.i17, label %if.then13.i.i18, label %_ZN4cvc58internal12NodeTemplateILb1EED2Ev.exit20

if.then13.i.i18:                                  ; preds = %if.then.i.i12
  invoke void @_ZN4cvc58internal4expr9NodeValue15markForDeletionEv(ptr noundef nonnull align 8 dereferenceable(16) %7)
          to label %_ZN4cvc58internal12NodeTemplateILb1EED2Ev.exit20 unwind label %terminate.lpad.i19

terminate.lpad.i19:                               ; preds = %if.then13.i.i18
  %9 = landingpad { ptr, i32 }
          catch ptr null
  %10 = extractvalue { ptr, i32 } %9, 0
  call void @__clang_call_terminate(ptr %10) #14
  unreachable

_ZN4cvc58internal12NodeTemplateILb1EED2Ev.exit20: ; preds = %_ZN4cvc58internal12NodeTemplateILb1EED2Ev.exit, %if.then.i.i12, %if.then13.i.i18
  ret void

lpad:                                             ; preds = %if.then13.i.i
  %11 = landingpad { ptr, i32 }
          cleanup
  br label %ehcleanup

lpad4:                                            ; preds = %invoke.cont
  %12 = landingpad { ptr, i32 }
          cleanup
  call void @_ZN4cvc58internal12NodeTemplateILb1EED2Ev(ptr noundef nonnull align 8 dereferenceable(8) %agg.tmp) #15
  br label %ehcleanup

ehcleanup:                                        ; preds = %lpad4, %lpad
  %.pn = phi { ptr, i32 } [ %12, %lpad4 ], [ %11, %lpad ]
  call void @_ZN4cvc58internal12NodeTemplateILb1EED2Ev(ptr noundef nonnull align 8 dereferenceable(8) %falset) #15
  resume { ptr, i32 } %.pn
}